target datalayout = "e-m:e-p270:32:32-p271:32:32-p272:64:64-i64:64-i128:128-f80:128-n8:16:32:64-S128"
target triple = "x86_64-pc-linux-gnu"

%"class.cm::String" = type { %"class.std::shared_ptr", %"class.std::basic_string_view" }
%"class.std::shared_ptr" = type { %"class.std::__shared_ptr" }
%"class.std::__shared_ptr" = type { ptr, %"class.std::__shared_count" }
%"class.std::__shared_count" = type { ptr }
%"class.std::basic_string_view" = type { i64, ptr }

@.str.6 = private unnamed_addr constant [24 x i8] c"basic_string_view::copy\00", align 1
@.str.7 = private unnamed_addr constant [49 x i8] c"%s: __pos (which is %zu) > __size (which is %zu)\00", align 1

; Function Attrs: mustprogress nounwind uwtable
define linkonce_odr dso_local noundef ptr @_ZNSt11char_traitsIcE4copyEPcPKcm(ptr noundef %0, ptr noundef %1, i64 noundef %2) #1 comdat align 2 {
  %4 = alloca ptr, align 8
  %5 = alloca ptr, align 8
  %6 = alloca ptr, align 8
  %7 = alloca i64, align 8
  store ptr %0, ptr %5, align 8, !tbaa !11
  store ptr %1, ptr %6, align 8, !tbaa !11
  store i64 %2, ptr %7, align 8, !tbaa !13
  %8 = load i64, ptr %7, align 8, !tbaa !13
  %9 = icmp eq i64 %8, 0
  br i1 %9, label %10, label %12

10:                                               ; preds = %3
  %11 = load ptr, ptr %5, align 8, !tbaa !11
  store ptr %11, ptr %4, align 8
  br label %16

12:                                               ; preds = %3
  %13 = load ptr, ptr %5, align 8, !tbaa !11
  %14 = load ptr, ptr %6, align 8, !tbaa !11
  %15 = load i64, ptr %7, align 8, !tbaa !13
  call void @llvm.memcpy.p0.p0.i64(ptr align 1 %13, ptr align 1 %14, i64 %15, i1 false)
  store ptr %13, ptr %4, align 8
  br label %16

16:                                               ; preds = %12, %10
  %17 = load ptr, ptr %4, align 8
  ret ptr %17
}

; Function Attrs: mustprogress nounwind uwtable
define linkonce_odr dso_local noundef ptr @_ZNKSt17basic_string_viewIcSt11char_traitsIcEE4dataEv(ptr noundef nonnull align 8 dereferenceable(16) %0) #1 comdat align 2 {
  %2 = alloca ptr, align 8
  store ptr %0, ptr %2, align 8, !tbaa !40
  %3 = load ptr, ptr %2, align 8
  %4 = getelementptr inbounds nuw %"class.std::basic_string_view", ptr %3, i32 0, i32 1
  %5 = load ptr, ptr %4, align 8, !tbaa !44
  ret ptr %5
}

; Function Attrs: inlinehint mustprogress nounwind uwtable
define linkonce_odr dso_local noundef nonnull align 8 dereferenceable(8) ptr @_ZSt3minImERKT_S2_S2_(ptr noundef nonnull align 8 dereferenceable(8) %0, ptr noundef nonnull align 8 dereferenceable(8) %1) #7 comdat {
  %3 = alloca ptr, align 8
  %4 = alloca ptr, align 8
  %5 = alloca ptr, align 8
  store ptr %0, ptr %4, align 8, !tbaa !28
  store ptr %1, ptr %5, align 8, !tbaa !28
  %6 = load ptr, ptr %5, align 8, !tbaa !28
  %7 = load i64, ptr %6, align 8, !tbaa !13
  %8 = load ptr, ptr %4, align 8, !tbaa !28
  %9 = load i64, ptr %8, align 8, !tbaa !13
  %10 = icmp ult i64 %7, %9
  br i1 %10, label %11, label %13

11:                                               ; preds = %2
  %12 = load ptr, ptr %5, align 8, !tbaa !28
  store ptr %12, ptr %3, align 8
  br label %15

13:                                               ; preds = %2
  %14 = load ptr, ptr %4, align 8, !tbaa !28
  store ptr %14, ptr %3, align 8
  br label %15

15:                                               ; preds = %13, %11
  %16 = load ptr, ptr %3, align 8
  ret ptr %16
}

; Function Attrs: mustprogress uwtable
define linkonce_odr dso_local noundef i64 @_ZSt10__sv_checkmmPKc(i64 noundef %0, i64 noundef %1, ptr noundef %2) #3 comdat {
  %4 = alloca i64, align 8
  %5 = alloca i64, align 8
  %6 = alloca ptr, align 8
  store i64 %0, ptr %4, align 8, !tbaa !13
  store i64 %1, ptr %5, align 8, !tbaa !13
  store ptr %2, ptr %6, align 8, !tbaa !11
  %7 = load i64, ptr %5, align 8, !tbaa !13
  %8 = load i64, ptr %4, align 8, !tbaa !13
  %9 = icmp ugt i64 %7, %8
  br i1 %9, label %10, label %14

10:                                               ; preds = %3
  %11 = load ptr, ptr %6, align 8, !tbaa !11
  %12 = load i64, ptr %5, align 8, !tbaa !13
  %13 = load i64, ptr %4, align 8, !tbaa !13
  call void (ptr, ...) @_ZSt24__throw_out_of_range_fmtPKcz(ptr noundef @.str.7, ptr noundef %11, i64 noundef %12, i64 noundef %13) #21
  unreachable

14:                                               ; preds = %3
  %15 = load i64, ptr %5, align 8, !tbaa !13
  ret i64 %15
}

; Function Attrs: mustprogress nounwind uwtable
define linkonce_odr dso_local noundef i64 @_ZNKSt17basic_string_viewIcSt11char_traitsIcEE4sizeEv(ptr noundef nonnull align 8 dereferenceable(16) %0) #1 comdat align 2 {
  %2 = alloca ptr, align 8
  store ptr %0, ptr %2, align 8, !tbaa !40
  %3 = load ptr, ptr %2, align 8
  %4 = getelementptr inbounds nuw %"class.std::basic_string_view", ptr %3, i32 0, i32 0
  %5 = load i64, ptr %4, align 8, !tbaa !42
  ret i64 %5
}

; Function Attrs: mustprogress uwtable
define linkonce_odr dso_local noundef i64 @_ZNKSt17basic_string_viewIcSt11char_traitsIcEE4copyEPcmm(ptr noundef nonnull align 8 dereferenceable(16) %0, ptr noundef %1, i64 noundef %2, i64 noundef %3) #3 comdat align 2 {
  %5 = alloca ptr, align 8
  %6 = alloca ptr, align 8
  %7 = alloca i64, align 8
  %8 = alloca i64, align 8
  %9 = alloca i64, align 8
  %10 = alloca i64, align 8
  store ptr %0, ptr %5, align 8, !tbaa !40
  store ptr %1, ptr %6, align 8, !tbaa !11
  store i64 %2, ptr %7, align 8, !tbaa !13
  store i64 %3, ptr %8, align 8, !tbaa !13
  %11 = load ptr, ptr %5, align 8
  %12 = call noundef i64 @_ZNKSt17basic_string_viewIcSt11char_traitsIcEE4sizeEv(ptr noundef nonnull align 8 dereferenceable(16) %11) #2
  %13 = load i64, ptr %8, align 8, !tbaa !13
  %14 = call noundef i64 @_ZSt10__sv_checkmmPKc(i64 noundef %12, i64 noundef %13, ptr noundef @.str.6)
  store i64 %14, ptr %8, align 8, !tbaa !13
  call void @llvm.lifetime.start.p0(i64 8, ptr %9) #2
  call void @llvm.lifetime.start.p0(i64 8, ptr %10) #2
  %15 = getelementptr inbounds nuw %"class.std::basic_string_view", ptr %11, i32 0, i32 0
  %16 = load i64, ptr %15, align 8, !tbaa !42
  %17 = load i64, ptr %8, align 8, !tbaa !13
  %18 = sub i64 %16, %17
  store i64 %18, ptr %10, align 8, !tbaa !13
  %19 = call noundef nonnull align 8 dereferenceable(8) ptr @_ZSt3minImERKT_S2_S2_(ptr noundef nonnull align 8 dereferenceable(8) %7, ptr noundef nonnull align 8 dereferenceable(8) %10)
  %20 = load i64, ptr %19, align 8, !tbaa !13
  call void @llvm.lifetime.end.p0(i64 8, ptr %10) #2
  store i64 %20, ptr %9, align 8, !tbaa !13
  %21 = load ptr, ptr %6, align 8, !tbaa !11
  %22 = call noundef ptr @_ZNKSt17basic_string_viewIcSt11char_traitsIcEE4dataEv(ptr noundef nonnull align 8 dereferenceable(16) %11) #2
  %23 = load i64, ptr %8, align 8, !tbaa !13
  %24 = getelementptr inbounds nuw i8, ptr %22, i64 %23
  %25 = load i64, ptr %9, align 8, !tbaa !13
  %26 = call noundef ptr @_ZNSt11char_traitsIcE4copyEPcPKcm(ptr noundef %21, ptr noundef %24, i64 noundef %25)
  %27 = load i64, ptr %9, align 8, !tbaa !13
  call void @llvm.lifetime.end.p0(i64 8, ptr %9) #2
  ret i64 %27
}

; Function Attrs: mustprogress uwtable
define dso_local noundef i64 @_ZNK2cm6String4copyEPcmm(ptr noundef nonnull align 8 dereferenceable(32) %0, ptr noundef %1, i64 noundef %2, i64 noundef %3) #3 align 2 {
  %5 = alloca ptr, align 8
  %6 = alloca ptr, align 8
  %7 = alloca i64, align 8
  %8 = alloca i64, align 8
  store ptr %0, ptr %5, align 8, !tbaa !9
  store ptr %1, ptr %6, align 8, !tbaa !11
  store i64 %2, ptr %7, align 8, !tbaa !13
  store i64 %3, ptr %8, align 8, !tbaa !13
  %9 = load ptr, ptr %5, align 8
  %10 = getelementptr inbounds nuw %"class.cm::String", ptr %9, i32 0, i32 1
  %11 = load ptr, ptr %6, align 8, !tbaa !11
  %12 = load i64, ptr %7, align 8, !tbaa !13
  %13 = load i64, ptr %8, align 8, !tbaa !13
  %14 = call noundef i64 @_ZNKSt17basic_string_viewIcSt11char_traitsIcEE4copyEPcmm(ptr noundef nonnull align 8 dereferenceable(16) %10, ptr noundef %11, i64 noundef %12, i64 noundef %13)
  ret i64 %14
}