; Function Attrs: mustprogress uwtable
define dso_local noundef i64 @_ZNK2cm6String4copyEPcmm(ptr noundef nonnull readonly align 8 captures(none) dereferenceable(32) %0, ptr noundef writeonly captures(none) %1, i64 noundef %2, i64 noundef %3) local_unnamed_addr #2 align 2 {
  %5 = getelementptr inbounds nuw i8, ptr %0, i64 16
  %6 = load i64, ptr %5, align 8, !tbaa !11
  %7 = icmp ugt i64 %3, %6
  br i1 %7, label %8, label %_ZSt10__sv_checkmmPKc.exit.i

8:                                                ; preds = %4
  tail call void (ptr, ...) @_ZSt24__throw_out_of_range_fmtPKcz(ptr noundef nonnull @.str.7, ptr noundef nonnull @.str.6, i64 noundef %3, i64 noundef %6) #21
  unreachable

_ZSt10__sv_checkmmPKc.exit.i:                     ; preds = %4
  %9 = sub nuw i64 %6, %3
  %.sroa.speculated.i = tail call i64 @llvm.umin.i64(i64 %9, i64 %2)
  %10 = icmp eq i64 %.sroa.speculated.i, 0
  br i1 %10, label %_ZNKSt17basic_string_viewIcSt11char_traitsIcEE4copyEPcmm.exit, label %11

11:                                               ; preds = %_ZSt10__sv_checkmmPKc.exit.i
  %12 = getelementptr inbounds nuw i8, ptr %0, i64 24
  %13 = load ptr, ptr %12, align 8, !tbaa !4
  %14 = getelementptr inbounds nuw i8, ptr %13, i64 %3
  tail call void @llvm.memcpy.p0.p0.i64(ptr align 1 %1, ptr align 1 %14, i64 %.sroa.speculated.i, i1 false)
  br label %_ZNKSt17basic_string_viewIcSt11char_traitsIcEE4copyEPcmm.exit

_ZNKSt17basic_string_viewIcSt11char_traitsIcEE4copyEPcmm.exit: ; preds = %_ZSt10__sv_checkmmPKc.exit.i, %11
  ret i64 %.sroa.speculated.i
}